target datalayout = "e-m:e-p270:32:32-p271:32:32-p272:64:64-i64:64-i128:128-f80:128-n8:16:32:64-S128"
target triple = "x86_64-pc-linux-gnu"

; Function Attrs: inlinehint mustprogress nounwind uwtable
define internal noundef i32 @_ZN11duckdb_zstdL24ZSTD_countLeadingZeros32Ej(i32 noundef %0) #10 {
  %2 = alloca i32, align 4
  store i32 %0, ptr %2, align 4, !tbaa !11
  %3 = load i32, ptr %2, align 4, !tbaa !11
  %4 = call i32 @llvm.ctlz.i32(i32 %3, i1 true)
  ret i32 %4
}

; Function Attrs: mustprogress nounwind uwtable
define internal noundef i64 @_ZN11duckdb_zstdL13HUF_getNbBitsEm(i64 noundef %0) #0 {
  %2 = alloca i64, align 8
  store i64 %0, ptr %2, align 8, !tbaa !9
  %3 = load i64, ptr %2, align 8, !tbaa !9
  %4 = and i64 %3, 255
  ret i64 %4
}

; Function Attrs: inlinehint mustprogress uwtable
define internal noundef i32 @_ZN11duckdb_zstdL14ZSTD_highbit32Ej(i32 noundef %0) #6 {
  %2 = alloca i32, align 4
  store i32 %0, ptr %2, align 4, !tbaa !11
  %3 = load i32, ptr %2, align 4, !tbaa !11
  %4 = call noundef i32 @_ZN11duckdb_zstdL24ZSTD_countLeadingZeros32Ej(i32 noundef %3)
  %5 = sub i32 31, %4
  ret i32 %5
}

; Function Attrs: mustprogress uwtable
define noundef i64 @_ZN11duckdb_zstd26HUF_estimateCompressedSizeEPKmPKjj(ptr noundef %0, ptr noundef %1, i32 noundef %2) #2 {
  %4 = alloca ptr, align 8
  %5 = alloca ptr, align 8
  %6 = alloca i32, align 4
  %7 = alloca ptr, align 8
  %8 = alloca i64, align 8
  %9 = alloca i32, align 4
  store ptr %0, ptr %4, align 8, !tbaa !3
  store ptr %1, ptr %5, align 8, !tbaa !20
  store i32 %2, ptr %6, align 4, !tbaa !11
  call void @llvm.lifetime.start.p0(i64 8, ptr %7) #12
  %10 = load ptr, ptr %4, align 8, !tbaa !3
  %11 = getelementptr inbounds i64, ptr %10, i64 1
  store ptr %11, ptr %7, align 8, !tbaa !3
  call void @llvm.lifetime.start.p0(i64 8, ptr %8) #12
  store i64 0, ptr %8, align 8, !tbaa !9
  call void @llvm.lifetime.start.p0(i64 4, ptr %9) #12
  store i32 0, ptr %9, align 4, !tbaa !11
  br label %12

12:                                               ; preds = %32, %3
  %13 = load i32, ptr %9, align 4, !tbaa !11
  %14 = load i32, ptr %6, align 4, !tbaa !11
  %15 = icmp sle i32 %13, %14
  br i1 %15, label %16, label %35

16:                                               ; preds = %12
  %17 = load ptr, ptr %7, align 8, !tbaa !3
  %18 = load i32, ptr %9, align 4, !tbaa !11
  %19 = sext i32 %18 to i64
  %20 = getelementptr inbounds i64, ptr %17, i64 %19
  %21 = load i64, ptr %20, align 8, !tbaa !9
  %22 = call noundef i64 @_ZN11duckdb_zstdL13HUF_getNbBitsEm(i64 noundef %21)
  %23 = load ptr, ptr %5, align 8, !tbaa !20
  %24 = load i32, ptr %9, align 4, !tbaa !11
  %25 = sext i32 %24 to i64
  %26 = getelementptr inbounds i32, ptr %23, i64 %25
  %27 = load i32, ptr %26, align 4, !tbaa !11
  %28 = zext i32 %27 to i64
  %29 = mul i64 %22, %28
  %30 = load i64, ptr %8, align 8, !tbaa !9
  %31 = add i64 %30, %29
  store i64 %31, ptr %8, align 8, !tbaa !9
  br label %32

32:                                               ; preds = %16
  %33 = load i32, ptr %9, align 4, !tbaa !11
  %34 = add nsw i32 %33, 1
  store i32 %34, ptr %9, align 4, !tbaa !11
  br label %12, !llvm.loop !63

35:                                               ; preds = %12
  %36 = load i64, ptr %8, align 8, !tbaa !9
  %37 = lshr i64 %36, 3
  call void @llvm.lifetime.end.p0(i64 4, ptr %9) #12
  call void @llvm.lifetime.end.p0(i64 8, ptr %8) #12
  call void @llvm.lifetime.end.p0(i64 8, ptr %7) #12
  ret i64 %37
}

; Function Attrs: mustprogress nounwind uwtable
define internal noundef i32 @_ZN11duckdb_zstdL11ERR_isErrorEm(i64 noundef %0) #0 {
  %2 = alloca i64, align 8
  store i64 %0, ptr %2, align 8, !tbaa !9
  %3 = load i64, ptr %2, align 8, !tbaa !9
  %4 = icmp ugt i64 %3, -120
  %5 = zext i1 %4 to i32
  ret i32 %5
}

; Function Attrs: mustprogress uwtable
define noundef i32 @_ZN11duckdb_zstd15HUF_minTableLogEj(i32 noundef %0) #2 {
  %2 = alloca i32, align 4
  %3 = alloca i32, align 4
  store i32 %0, ptr %2, align 4, !tbaa !11
  call void @llvm.lifetime.start.p0(i64 4, ptr %3) #12
  %4 = load i32, ptr %2, align 4, !tbaa !11
  %5 = call noundef i32 @_ZN11duckdb_zstdL14ZSTD_highbit32Ej(i32 noundef %4)
  %6 = add i32 %5, 1
  store i32 %6, ptr %3, align 4, !tbaa !11
  %7 = load i32, ptr %3, align 4, !tbaa !11
  call void @llvm.lifetime.end.p0(i64 4, ptr %3) #12
  ret i32 %7
}

; Function Attrs: mustprogress nounwind uwtable
define noundef i32 @_ZN11duckdb_zstd15HUF_cardinalityEPKjj(ptr noundef %0, i32 noundef %1) #0 {
  %3 = alloca ptr, align 8
  %4 = alloca i32, align 4
  %5 = alloca i32, align 4
  %6 = alloca i32, align 4
  store ptr %0, ptr %3, align 8, !tbaa !20
  store i32 %1, ptr %4, align 4, !tbaa !11
  call void @llvm.lifetime.start.p0(i64 4, ptr %5) #12
  store i32 0, ptr %5, align 4, !tbaa !11
  call void @llvm.lifetime.start.p0(i64 4, ptr %6) #12
  store i32 0, ptr %6, align 4, !tbaa !11
  br label %7

7:                                                ; preds = %23, %2
  %8 = load i32, ptr %6, align 4, !tbaa !11
  %9 = load i32, ptr %4, align 4, !tbaa !11
  %10 = add i32 %9, 1
  %11 = icmp ult i32 %8, %10
  br i1 %11, label %12, label %26

12:                                               ; preds = %7
  %13 = load ptr, ptr %3, align 8, !tbaa !20
  %14 = load i32, ptr %6, align 4, !tbaa !11
  %15 = zext i32 %14 to i64
  %16 = getelementptr inbounds nuw i32, ptr %13, i64 %15
  %17 = load i32, ptr %16, align 4, !tbaa !11
  %18 = icmp ne i32 %17, 0
  br i1 %18, label %19, label %22

19:                                               ; preds = %12
  %20 = load i32, ptr %5, align 4, !tbaa !11
  %21 = add i32 %20, 1
  store i32 %21, ptr %5, align 4, !tbaa !11
  br label %22

22:                                               ; preds = %19, %12
  br label %23

23:                                               ; preds = %22
  %24 = load i32, ptr %6, align 4, !tbaa !11
  %25 = add i32 %24, 1
  store i32 %25, ptr %6, align 4, !tbaa !11
  br label %7, !llvm.loop !65

26:                                               ; preds = %7
  %27 = load i32, ptr %5, align 4, !tbaa !11
  call void @llvm.lifetime.end.p0(i64 4, ptr %6) #12
  call void @llvm.lifetime.end.p0(i64 4, ptr %5) #12
  ret i32 %27
}

; Function Attrs: mustprogress uwtable
define noundef i32 @_ZN11duckdb_zstd19HUF_optimalTableLogEjmjPvmPmPKji(i32 noundef %0, i64 noundef %1, i32 noundef %2, ptr noundef %3, i64 noundef %4, ptr noundef %5, ptr noundef %6, i32 noundef %7) #2 {
  %9 = alloca i32, align 4
  %10 = alloca i32, align 4
  %11 = alloca i64, align 8
  %12 = alloca i32, align 4
  %13 = alloca ptr, align 8
  %14 = alloca i64, align 8
  %15 = alloca ptr, align 8
  %16 = alloca ptr, align 8
  %17 = alloca i32, align 4
  %18 = alloca ptr, align 8
  %19 = alloca i64, align 8
  %20 = alloca i64, align 8
  %21 = alloca i64, align 8
  %22 = alloca i32, align 4
  %23 = alloca i32, align 4
  %24 = alloca i64, align 8
  %25 = alloca i32, align 4
  %26 = alloca i32, align 4
  %27 = alloca i64, align 8
  %28 = alloca i32, align 4
  store i32 %0, ptr %10, align 4, !tbaa !11
  store i64 %1, ptr %11, align 8, !tbaa !9
  store i32 %2, ptr %12, align 4, !tbaa !11
  store ptr %3, ptr %13, align 8, !tbaa !8
  store i64 %4, ptr %14, align 8, !tbaa !9
  store ptr %5, ptr %15, align 8, !tbaa !3
  store ptr %6, ptr %16, align 8, !tbaa !20
  store i32 %7, ptr %17, align 4, !tbaa !11
  %29 = load i32, ptr %17, align 4, !tbaa !11
  %30 = and i32 %29, 2
  %31 = icmp ne i32 %30, 0
  br i1 %31, label %37, label %32

32:                                               ; preds = %8
  %33 = load i32, ptr %10, align 4, !tbaa !11
  %34 = load i64, ptr %11, align 8, !tbaa !9
  %35 = load i32, ptr %12, align 4, !tbaa !11
  %36 = call noundef i32 @_ZN11duckdb_zstd28FSE_optimalTableLog_internalEjmjj(i32 noundef %33, i64 noundef %34, i32 noundef %35, i32 noundef 1)
  store i32 %36, ptr %9, align 4
  br label %123

37:                                               ; preds = %8
  call void @llvm.lifetime.start.p0(i64 8, ptr %18) #12
  %38 = load ptr, ptr %13, align 8, !tbaa !8
  %39 = getelementptr inbounds nuw i8, ptr %38, i64 748
  store ptr %39, ptr %18, align 8, !tbaa !13
  call void @llvm.lifetime.start.p0(i64 8, ptr %19) #12
  %40 = load i64, ptr %14, align 8, !tbaa !9
  %41 = sub i64 %40, 748
  store i64 %41, ptr %19, align 8, !tbaa !9
  call void @llvm.lifetime.start.p0(i64 8, ptr %20) #12
  call void @llvm.lifetime.start.p0(i64 8, ptr %21) #12
  call void @llvm.lifetime.start.p0(i64 4, ptr %22) #12
  %42 = load ptr, ptr %16, align 8, !tbaa !20
  %43 = load i32, ptr %12, align 4, !tbaa !11
  %44 = call noundef i32 @_ZN11duckdb_zstd15HUF_cardinalityEPKjj(ptr noundef %42, i32 noundef %43)
  store i32 %44, ptr %22, align 4, !tbaa !11
  call void @llvm.lifetime.start.p0(i64 4, ptr %23) #12
  %45 = load i32, ptr %22, align 4, !tbaa !11
  %46 = call noundef i32 @_ZN11duckdb_zstd15HUF_minTableLogEj(i32 noundef %45)
  store i32 %46, ptr %23, align 4, !tbaa !11
  call void @llvm.lifetime.start.p0(i64 8, ptr %24) #12
  store i64 -2, ptr %24, align 8, !tbaa !9
  call void @llvm.lifetime.start.p0(i64 4, ptr %25) #12
  %47 = load i32, ptr %10, align 4, !tbaa !11
  store i32 %47, ptr %25, align 4, !tbaa !11
  call void @llvm.lifetime.start.p0(i64 4, ptr %26) #12
  br label %48

48:                                               ; preds = %37
  br label %49

49:                                               ; preds = %48
  br label %50

50:                                               ; preds = %49
  %51 = load i32, ptr %23, align 4, !tbaa !11
  store i32 %51, ptr %26, align 4, !tbaa !11
  br label %52

52:                                               ; preds = %118, %50
  %53 = load i32, ptr %26, align 4, !tbaa !11
  %54 = load i32, ptr %10, align 4, !tbaa !11
  %55 = icmp ule i32 %53, %54
  br i1 %55, label %56, label %121

56:                                               ; preds = %52
  br label %57

57:                                               ; preds = %56
  br label %58

58:                                               ; preds = %57
  br label %59

59:                                               ; preds = %58
  call void @llvm.lifetime.start.p0(i64 8, ptr %27) #12
  %60 = load ptr, ptr %15, align 8, !tbaa !3
  %61 = load ptr, ptr %16, align 8, !tbaa !20
  %62 = load i32, ptr %12, align 4, !tbaa !11
  %63 = load i32, ptr %26, align 4, !tbaa !11
  %64 = load ptr, ptr %13, align 8, !tbaa !8
  %65 = load i64, ptr %14, align 8, !tbaa !9
  %66 = call noundef i64 @_ZN11duckdb_zstd20HUF_buildCTable_wkspEPmPKjjjPvm(ptr noundef %60, ptr noundef %61, i32 noundef %62, i32 noundef %63, ptr noundef %64, i64 noundef %65)
  store i64 %66, ptr %27, align 8, !tbaa !9
  %67 = load i64, ptr %27, align 8, !tbaa !9
  %68 = call noundef i32 @_ZN11duckdb_zstdL11ERR_isErrorEm(i64 noundef %67)
  %69 = icmp ne i32 %68, 0
  br i1 %69, label %70, label %71

70:                                               ; preds = %59
  store i32 6, ptr %28, align 4
  br label %91

71:                                               ; preds = %59
  %72 = load i64, ptr %27, align 8, !tbaa !9
  %73 = load i32, ptr %26, align 4, !tbaa !11
  %74 = zext i32 %73 to i64
  %75 = icmp ult i64 %72, %74
  br i1 %75, label %76, label %81

76:                                               ; preds = %71
  %77 = load i32, ptr %26, align 4, !tbaa !11
  %78 = load i32, ptr %23, align 4, !tbaa !11
  %79 = icmp ugt i32 %77, %78
  br i1 %79, label %80, label %81

80:                                               ; preds = %76
  store i32 4, ptr %28, align 4
  br label %91

81:                                               ; preds = %76, %71
  %82 = load ptr, ptr %18, align 8, !tbaa !13
  %83 = load i64, ptr %19, align 8, !tbaa !9
  %84 = load ptr, ptr %15, align 8, !tbaa !3
  %85 = load i32, ptr %12, align 4, !tbaa !11
  %86 = load i64, ptr %27, align 8, !tbaa !9
  %87 = trunc i64 %86 to i32
  %88 = load ptr, ptr %13, align 8, !tbaa !8
  %89 = load i64, ptr %14, align 8, !tbaa !9
  %90 = call noundef i64 @_ZN11duckdb_zstd20HUF_writeCTable_wkspEPvmPKmjjS0_m(ptr noundef %82, i64 noundef %83, ptr noundef %84, i32 noundef %85, i32 noundef %87, ptr noundef %88, i64 noundef %89)
  store i64 %90, ptr %20, align 8, !tbaa !9
  store i32 0, ptr %28, align 4
  br label %91

91:                                               ; preds = %81, %80, %70
  call void @llvm.lifetime.end.p0(i64 8, ptr %27) #12
  %92 = load i32, ptr %28, align 4
  switch i32 %92, label %125 [
    i32 0, label %93
    i32 6, label %118
    i32 4, label %121
  ]

93:                                               ; preds = %91
  %94 = load i64, ptr %20, align 8, !tbaa !9
  %95 = call noundef i32 @_ZN11duckdb_zstdL11ERR_isErrorEm(i64 noundef %94)
  %96 = icmp ne i32 %95, 0
  br i1 %96, label %97, label %98

97:                                               ; preds = %93
  br label %118

98:                                               ; preds = %93
  %99 = load ptr, ptr %15, align 8, !tbaa !3
  %100 = load ptr, ptr %16, align 8, !tbaa !20
  %101 = load i32, ptr %12, align 4, !tbaa !11
  %102 = call noundef i64 @_ZN11duckdb_zstd26HUF_estimateCompressedSizeEPKmPKjj(ptr noundef %99, ptr noundef %100, i32 noundef %101)
  %103 = load i64, ptr %20, align 8, !tbaa !9
  %104 = add i64 %102, %103
  store i64 %104, ptr %21, align 8, !tbaa !9
  %105 = load i64, ptr %21, align 8, !tbaa !9
  %106 = load i64, ptr %24, align 8, !tbaa !9
  %107 = add i64 %106, 1
  %108 = icmp ugt i64 %105, %107
  br i1 %108, label %109, label %110

109:                                              ; preds = %98
  br label %121

110:                                              ; preds = %98
  %111 = load i64, ptr %21, align 8, !tbaa !9
  %112 = load i64, ptr %24, align 8, !tbaa !9
  %113 = icmp ult i64 %111, %112
  br i1 %113, label %114, label %117

114:                                              ; preds = %110
  %115 = load i64, ptr %21, align 8, !tbaa !9
  store i64 %115, ptr %24, align 8, !tbaa !9
  %116 = load i32, ptr %26, align 4, !tbaa !11
  store i32 %116, ptr %25, align 4, !tbaa !11
  br label %117

117:                                              ; preds = %114, %110
  br label %118

118:                                              ; preds = %117, %97, %91
  %119 = load i32, ptr %26, align 4, !tbaa !11
  %120 = add i32 %119, 1
  store i32 %120, ptr %26, align 4, !tbaa !11
  br label %52, !llvm.loop !66

121:                                              ; preds = %109, %91, %52
  %122 = load i32, ptr %25, align 4, !tbaa !11
  store i32 %122, ptr %9, align 4
  store i32 1, ptr %28, align 4
  call void @llvm.lifetime.end.p0(i64 4, ptr %26) #12
  call void @llvm.lifetime.end.p0(i64 4, ptr %25) #12
  call void @llvm.lifetime.end.p0(i64 8, ptr %24) #12
  call void @llvm.lifetime.end.p0(i64 4, ptr %23) #12
  call void @llvm.lifetime.end.p0(i64 4, ptr %22) #12
  call void @llvm.lifetime.end.p0(i64 8, ptr %21) #12
  call void @llvm.lifetime.end.p0(i64 8, ptr %20) #12
  call void @llvm.lifetime.end.p0(i64 8, ptr %19) #12
  call void @llvm.lifetime.end.p0(i64 8, ptr %18) #12
  br label %123

123:                                              ; preds = %121, %32
  %124 = load i32, ptr %9, align 4
  ret i32 %124

125:                                              ; preds = %91
  unreachable
}